target datalayout = "e-m:e-p270:32:32-p271:32:32-p272:64:64-i64:64-i128:128-f80:128-n8:16:32:64-S128"
target triple = "x86_64-pc-linux-gnu"

%struct.tag_AlsaPcmInfo = type { ptr, ptr, ptr, i32, i32, i32, i64, i16, i16, ptr }

; Function Attrs: nounwind uwtable
define hidden void @DAUDIO_Close(ptr noundef %0, i32 noundef %1) #0 {
  %3 = alloca ptr, align 8
  %4 = alloca i32, align 4
  %5 = alloca ptr, align 8
  store ptr %0, ptr %3, align 8
  store i32 %1, ptr %4, align 4
  %6 = load ptr, ptr %3, align 8
  store ptr %6, ptr %5, align 8
  %7 = load ptr, ptr %5, align 8
  %8 = icmp ne ptr %7, null
  br i1 %8, label %9, label %48

9:                                                ; preds = %2
  %10 = load ptr, ptr %5, align 8
  %11 = getelementptr inbounds %struct.tag_AlsaPcmInfo, ptr %10, i32 0, i32 0
  %12 = load ptr, ptr %11, align 8
  %13 = icmp ne ptr %12, null
  br i1 %13, label %14, label %19

14:                                               ; preds = %9
  %15 = load ptr, ptr %5, align 8
  %16 = getelementptr inbounds %struct.tag_AlsaPcmInfo, ptr %15, i32 0, i32 0
  %17 = load ptr, ptr %16, align 8
  %18 = call i32 @snd_pcm_close(ptr noundef %17)
  br label %19

19:                                               ; preds = %14, %9
  %20 = load ptr, ptr %5, align 8
  %21 = getelementptr inbounds %struct.tag_AlsaPcmInfo, ptr %20, i32 0, i32 1
  %22 = load ptr, ptr %21, align 8
  %23 = icmp ne ptr %22, null
  br i1 %23, label %24, label %28

24:                                               ; preds = %19
  %25 = load ptr, ptr %5, align 8
  %26 = getelementptr inbounds %struct.tag_AlsaPcmInfo, ptr %25, i32 0, i32 1
  %27 = load ptr, ptr %26, align 8
  call void @snd_pcm_hw_params_free(ptr noundef %27)
  br label %28

28:                                               ; preds = %24, %19
  %29 = load ptr, ptr %5, align 8
  %30 = getelementptr inbounds %struct.tag_AlsaPcmInfo, ptr %29, i32 0, i32 2
  %31 = load ptr, ptr %30, align 8
  %32 = icmp ne ptr %31, null
  br i1 %32, label %33, label %37

33:                                               ; preds = %28
  %34 = load ptr, ptr %5, align 8
  %35 = getelementptr inbounds %struct.tag_AlsaPcmInfo, ptr %34, i32 0, i32 2
  %36 = load ptr, ptr %35, align 8
  call void @snd_pcm_sw_params_free(ptr noundef %36)
  br label %37

37:                                               ; preds = %33, %28
  %38 = load ptr, ptr %5, align 8
  %39 = getelementptr inbounds %struct.tag_AlsaPcmInfo, ptr %38, i32 0, i32 9
  %40 = load ptr, ptr %39, align 8
  %41 = icmp ne ptr %40, null
  br i1 %41, label %42, label %46

42:                                               ; preds = %37
  %43 = load ptr, ptr %5, align 8
  %44 = getelementptr inbounds %struct.tag_AlsaPcmInfo, ptr %43, i32 0, i32 9
  %45 = load ptr, ptr %44, align 8
  call void @snd_pcm_status_free(ptr noundef %45)
  br label %46

46:                                               ; preds = %42, %37
  %47 = load ptr, ptr %5, align 8
  call void @free(ptr noundef %47) #6
  br label %48

48:                                               ; preds = %46, %2
  ret void
}

; Function Attrs: nounwind uwtable
define hidden ptr @DAUDIO_Open(i32 noundef %0, i32 noundef %1, i32 noundef %2, i32 noundef %3, float noundef %4, i32 noundef %5, i32 noundef %6, i32 noundef %7, i32 noundef %8, i32 noundef %9, i32 noundef %10) #0 {
  %12 = alloca ptr, align 8
  %13 = alloca i32, align 4
  %14 = alloca i32, align 4
  %15 = alloca i32, align 4
  %16 = alloca i32, align 4
  %17 = alloca float, align 4
  %18 = alloca i32, align 4
  %19 = alloca i32, align 4
  %20 = alloca i32, align 4
  %21 = alloca i32, align 4
  %22 = alloca i32, align 4
  %23 = alloca i32, align 4
  %24 = alloca i32, align 4
  %25 = alloca i32, align 4
  %26 = alloca i32, align 4
  %27 = alloca ptr, align 8
  %28 = alloca i64, align 8
  store i32 %0, ptr %13, align 4
  store i32 %1, ptr %14, align 4
  store i32 %2, ptr %15, align 4
  store i32 %3, ptr %16, align 4
  store float %4, ptr %17, align 4
  store i32 %5, ptr %18, align 4
  store i32 %6, ptr %19, align 4
  store i32 %7, ptr %20, align 4
  store i32 %8, ptr %21, align 4
  store i32 %9, ptr %22, align 4
  store i32 %10, ptr %23, align 4
  store i32 0, ptr %26, align 4
  store ptr null, ptr %27, align 8
  store i64 0, ptr %28, align 8
  %29 = load i32, ptr %20, align 4
  %30 = icmp sle i32 %29, 0
  br i1 %30, label %31, label %32

31:                                               ; preds = %11
  store ptr null, ptr %12, align 8
  br label %167

32:                                               ; preds = %11
  %33 = call noalias ptr @malloc(i64 noundef 64) #5
  store ptr %33, ptr %27, align 8
  %34 = load ptr, ptr %27, align 8
  %35 = icmp ne ptr %34, null
  br i1 %35, label %37, label %36

36:                                               ; preds = %32
  store ptr null, ptr %12, align 8
  br label %167

37:                                               ; preds = %32
  %38 = load ptr, ptr %27, align 8
  call void @llvm.memset.p0.i64(ptr align 8 %38, i8 0, i64 64, i1 false)
  %39 = load ptr, ptr %27, align 8
  %40 = getelementptr inbounds %struct.tag_AlsaPcmInfo, ptr %39, i32 0, i32 7
  store i16 0, ptr %40, align 8
  %41 = load ptr, ptr %27, align 8
  %42 = getelementptr inbounds %struct.tag_AlsaPcmInfo, ptr %41, i32 0, i32 8
  store i16 1, ptr %42, align 2
  %43 = load i32, ptr %14, align 4
  %44 = load ptr, ptr %27, align 8
  %45 = getelementptr inbounds %struct.tag_AlsaPcmInfo, ptr %44, i32 0, i32 0
  %46 = load i32, ptr %15, align 4
  %47 = call i32 @openPCMfromDeviceID(i32 noundef %43, ptr noundef %45, i32 noundef %46, i32 noundef 0)
  store i32 %47, ptr %26, align 4
  %48 = load i32, ptr %26, align 4
  %49 = icmp eq i32 %48, 0
  br i1 %49, label %50, label %154

50:                                               ; preds = %37
  %51 = load ptr, ptr %27, align 8
  %52 = getelementptr inbounds %struct.tag_AlsaPcmInfo, ptr %51, i32 0, i32 0
  %53 = load ptr, ptr %52, align 8
  %54 = call i32 @snd_pcm_nonblock(ptr noundef %53, i32 noundef 0)
  %55 = load ptr, ptr %27, align 8
  %56 = getelementptr inbounds %struct.tag_AlsaPcmInfo, ptr %55, i32 0, i32 1
  %57 = call i32 @snd_pcm_hw_params_malloc(ptr noundef %56)
  store i32 %57, ptr %26, align 4
  %58 = load i32, ptr %26, align 4
  %59 = icmp ne i32 %58, 0
  br i1 %59, label %60, label %61

60:                                               ; preds = %50
  br label %113

61:                                               ; preds = %50
  store i32 -1, ptr %26, align 4
  %62 = load i32, ptr %19, align 4
  %63 = load i32, ptr %20, align 4
  %64 = sdiv i32 %62, %63
  %65 = load i32, ptr %18, align 4
  %66 = load i32, ptr %21, align 4
  %67 = load i32, ptr %22, align 4
  %68 = load i32, ptr %16, align 4
  %69 = call i32 @getAlsaFormatFromFormat(ptr noundef %24, i32 noundef %64, i32 noundef %65, i32 noundef %66, i32 noundef %67, i32 noundef %68)
  %70 = icmp ne i32 %69, 0
  br i1 %70, label %71, label %112

71:                                               ; preds = %61
  %72 = load ptr, ptr %27, align 8
  %73 = load float, ptr %17, align 4
  %74 = load i32, ptr %20, align 4
  %75 = load i32, ptr %23, align 4
  %76 = load i32, ptr %19, align 4
  %77 = sdiv i32 %75, %76
  %78 = load i32, ptr %24, align 4
  %79 = call i32 @setHWParams(ptr noundef %72, float noundef %73, i32 noundef %74, i32 noundef %77, i32 noundef %78)
  %80 = icmp ne i32 %79, 0
  br i1 %80, label %81, label %111

81:                                               ; preds = %71
  %82 = load i32, ptr %19, align 4
  %83 = load ptr, ptr %27, align 8
  %84 = getelementptr inbounds %struct.tag_AlsaPcmInfo, ptr %83, i32 0, i32 4
  store i32 %82, ptr %84, align 4
  %85 = load ptr, ptr %27, align 8
  %86 = getelementptr inbounds %struct.tag_AlsaPcmInfo, ptr %85, i32 0, i32 1
  %87 = load ptr, ptr %86, align 8
  %88 = load ptr, ptr %27, align 8
  %89 = getelementptr inbounds %struct.tag_AlsaPcmInfo, ptr %88, i32 0, i32 6
  %90 = call i32 @snd_pcm_hw_params_get_period_size(ptr noundef %87, ptr noundef %89, ptr noundef %25)
  store i32 %90, ptr %26, align 4
  %91 = load i32, ptr %26, align 4
  %92 = icmp slt i32 %91, 0
  br i1 %92, label %93, label %94

93:                                               ; preds = %81
  br label %94

94:                                               ; preds = %93, %81
  %95 = load ptr, ptr %27, align 8
  %96 = getelementptr inbounds %struct.tag_AlsaPcmInfo, ptr %95, i32 0, i32 1
  %97 = load ptr, ptr %96, align 8
  %98 = load ptr, ptr %27, align 8
  %99 = getelementptr inbounds %struct.tag_AlsaPcmInfo, ptr %98, i32 0, i32 5
  %100 = call i32 @snd_pcm_hw_params_get_periods(ptr noundef %97, ptr noundef %99, ptr noundef %25)
  %101 = load ptr, ptr %27, align 8
  %102 = getelementptr inbounds %struct.tag_AlsaPcmInfo, ptr %101, i32 0, i32 1
  %103 = load ptr, ptr %102, align 8
  %104 = call i32 @snd_pcm_hw_params_get_buffer_size(ptr noundef %103, ptr noundef %28)
  %105 = load i64, ptr %28, align 8
  %106 = trunc i64 %105 to i32
  %107 = load i32, ptr %19, align 4
  %108 = mul nsw i32 %106, %107
  %109 = load ptr, ptr %27, align 8
  %110 = getelementptr inbounds %struct.tag_AlsaPcmInfo, ptr %109, i32 0, i32 3
  store i32 %108, ptr %110, align 8
  br label %111

111:                                              ; preds = %94, %71
  br label %112

112:                                              ; preds = %111, %61
  br label %113

113:                                              ; preds = %112, %60
  %114 = load i32, ptr %26, align 4
  %115 = icmp eq i32 %114, 0
  br i1 %115, label %116, label %130

116:                                              ; preds = %113
  %117 = load ptr, ptr %27, align 8
  %118 = getelementptr inbounds %struct.tag_AlsaPcmInfo, ptr %117, i32 0, i32 2
  %119 = call i32 @snd_pcm_sw_params_malloc(ptr noundef %118)
  store i32 %119, ptr %26, align 4
  %120 = load i32, ptr %26, align 4
  %121 = icmp ne i32 %120, 0
  br i1 %121, label %122, label %123

122:                                              ; preds = %116
  br label %129

123:                                              ; preds = %116
  %124 = load ptr, ptr %27, align 8
  %125 = call i32 @setSWParams(ptr noundef %124)
  %126 = icmp ne i32 %125, 0
  br i1 %126, label %128, label %127

127:                                              ; preds = %123
  store i32 -1, ptr %26, align 4
  br label %128

128:                                              ; preds = %127, %123
  br label %129

129:                                              ; preds = %128, %122
  br label %130

130:                                              ; preds = %129, %113
  %131 = load i32, ptr %26, align 4
  %132 = icmp eq i32 %131, 0
  br i1 %132, label %133, label %142

133:                                              ; preds = %130
  %134 = load ptr, ptr %27, align 8
  %135 = getelementptr inbounds %struct.tag_AlsaPcmInfo, ptr %134, i32 0, i32 0
  %136 = load ptr, ptr %135, align 8
  %137 = call i32 @snd_pcm_prepare(ptr noundef %136)
  store i32 %137, ptr %26, align 4
  %138 = load i32, ptr %26, align 4
  %139 = icmp slt i32 %138, 0
  br i1 %139, label %140, label %141

140:                                              ; preds = %133
  br label %141

141:                                              ; preds = %140, %133
  br label %142

142:                                              ; preds = %141, %130
  %143 = load i32, ptr %26, align 4
  %144 = icmp eq i32 %143, 0
  br i1 %144, label %145, label %153

145:                                              ; preds = %142
  %146 = load ptr, ptr %27, align 8
  %147 = getelementptr inbounds %struct.tag_AlsaPcmInfo, ptr %146, i32 0, i32 9
  %148 = call i32 @snd_pcm_status_malloc(ptr noundef %147)
  store i32 %148, ptr %26, align 4
  %149 = load i32, ptr %26, align 4
  %150 = icmp ne i32 %149, 0
  br i1 %150, label %151, label %152

151:                                              ; preds = %145
  br label %152

152:                                              ; preds = %151, %145
  br label %153

153:                                              ; preds = %152, %142
  br label %154

154:                                              ; preds = %153, %37
  %155 = load i32, ptr %26, align 4
  %156 = icmp ne i32 %155, 0
  br i1 %156, label %157, label %160

157:                                              ; preds = %154
  %158 = load ptr, ptr %27, align 8
  %159 = load i32, ptr %15, align 4
  call void @DAUDIO_Close(ptr noundef %158, i32 noundef %159)
  store ptr null, ptr %27, align 8
  br label %165

160:                                              ; preds = %154
  %161 = load ptr, ptr %27, align 8
  %162 = getelementptr inbounds %struct.tag_AlsaPcmInfo, ptr %161, i32 0, i32 0
  %163 = load ptr, ptr %162, align 8
  %164 = call i32 @snd_pcm_nonblock(ptr noundef %163, i32 noundef 1)
  br label %165

165:                                              ; preds = %160, %157
  %166 = load ptr, ptr %27, align 8
  store ptr %166, ptr %12, align 8
  br label %167

167:                                              ; preds = %165, %36, %31
  %168 = load ptr, ptr %12, align 8
  ret ptr %168
}