; Function Attrs: nounwind uwtable
define hidden noundef ptr @DAUDIO_Open(i32 noundef %0, i32 noundef %1, i32 noundef %2, i32 noundef %3, float noundef %4, i32 noundef %5, i32 noundef %6, i32 noundef %7, i32 noundef %8, i32 noundef %9, i32 noundef %10) local_unnamed_addr #0 {
  %12 = alloca i32, align 4
  %13 = alloca i32, align 4
  %14 = alloca i64, align 8
  store i64 0, ptr %14, align 8
  %15 = icmp slt i32 %7, 1
  br i1 %15, label %76, label %16

16:                                               ; preds = %11
  %calloc = tail call dereferenceable_or_null(64) ptr @calloc(i64 1, i64 64)
  %.not = icmp eq ptr %calloc, null
  br i1 %.not, label %76, label %17

17:                                               ; preds = %16
  %18 = getelementptr inbounds i8, ptr %calloc, i64 50
  store i16 1, ptr %18, align 2
  %19 = tail call i32 @openPCMfromDeviceID(i32 noundef %1, ptr noundef nonnull %calloc, i32 noundef %2, i32 noundef 0) #8
  %20 = icmp eq i32 %19, 0
  br i1 %20, label %21, label %.critedge64

21:                                               ; preds = %17
  %22 = load ptr, ptr %calloc, align 8
  %23 = tail call i32 @snd_pcm_nonblock(ptr noundef %22, i32 noundef 0) #8
  %24 = getelementptr inbounds i8, ptr %calloc, i64 8
  %25 = tail call i32 @snd_pcm_hw_params_malloc(ptr noundef nonnull %24) #8
  %.not56 = icmp eq i32 %25, 0
  br i1 %.not56, label %26, label %.critedge64

26:                                               ; preds = %21
  %27 = sdiv i32 %6, %7
  %28 = call i32 @getAlsaFormatFromFormat(ptr noundef nonnull %12, i32 noundef %27, i32 noundef %5, i32 noundef %8, i32 noundef %9, i32 noundef %3) #8
  %.not57 = icmp eq i32 %28, 0
  br i1 %.not57, label %.critedge64, label %29

29:                                               ; preds = %26
  %30 = sdiv i32 %10, %6
  %31 = load i32, ptr %12, align 4
  %32 = call i32 @setHWParams(ptr noundef nonnull %calloc, float noundef %4, i32 noundef %7, i32 noundef %30, i32 noundef %31)
  %.not58 = icmp eq i32 %32, 0
  br i1 %.not58, label %.critedge64, label %33

33:                                               ; preds = %29
  %34 = getelementptr inbounds i8, ptr %calloc, i64 28
  store i32 %6, ptr %34, align 4
  %35 = load ptr, ptr %24, align 8
  %36 = getelementptr inbounds i8, ptr %calloc, i64 40
  %37 = call i32 @snd_pcm_hw_params_get_period_size(ptr noundef %35, ptr noundef nonnull %36, ptr noundef nonnull %13) #8
  %38 = load ptr, ptr %24, align 8
  %39 = getelementptr inbounds i8, ptr %calloc, i64 32
  %40 = call i32 @snd_pcm_hw_params_get_periods(ptr noundef %38, ptr noundef nonnull %39, ptr noundef nonnull %13) #8
  %41 = load ptr, ptr %24, align 8
  %42 = call i32 @snd_pcm_hw_params_get_buffer_size(ptr noundef %41, ptr noundef nonnull %14) #8
  %43 = load i64, ptr %14, align 8
  %44 = trunc i64 %43 to i32
  %45 = mul nsw i32 %44, %6
  %46 = getelementptr inbounds i8, ptr %calloc, i64 24
  store i32 %45, ptr %46, align 8
  %47 = icmp eq i32 %37, 0
  br i1 %47, label %48, label %.critedge64

48:                                               ; preds = %33
  %49 = getelementptr inbounds i8, ptr %calloc, i64 16
  %50 = call i32 @snd_pcm_sw_params_malloc(ptr noundef nonnull %49) #8
  %.not59 = icmp eq i32 %50, 0
  br i1 %.not59, label %.critedge, label %.critedge64

.critedge:                                        ; preds = %48
  %51 = call i32 @setSWParams(ptr noundef nonnull %calloc)
  %.not60.not = icmp eq i32 %51, 0
  br i1 %.not60.not, label %.critedge64, label %.critedge62

.critedge62:                                      ; preds = %.critedge
  %52 = load ptr, ptr %calloc, align 8
  %53 = call i32 @snd_pcm_prepare(ptr noundef %52) #8
  %54 = icmp eq i32 %53, 0
  br i1 %54, label %.critedge63, label %.critedge64

.critedge63:                                      ; preds = %.critedge62
  %55 = getelementptr inbounds i8, ptr %calloc, i64 56
  %56 = call i32 @snd_pcm_status_malloc(ptr noundef nonnull %55) #8
  %57 = icmp eq i32 %56, 0
  br i1 %57, label %73, label %.critedge64

.critedge64:                                      ; preds = %.critedge63, %.critedge, %21, %29, %26, %33, %48, %17, %.critedge62
  %58 = load ptr, ptr %calloc, align 8
  %.not15.i = icmp eq ptr %58, null
  br i1 %.not15.i, label %61, label %59

59:                                               ; preds = %.critedge64
  %60 = call i32 @snd_pcm_close(ptr noundef nonnull %58) #8
  br label %61

61:                                               ; preds = %59, %.critedge64
  %62 = getelementptr inbounds i8, ptr %calloc, i64 8
  %63 = load ptr, ptr %62, align 8
  %.not16.i = icmp eq ptr %63, null
  br i1 %.not16.i, label %65, label %64

64:                                               ; preds = %61
  call void @snd_pcm_hw_params_free(ptr noundef nonnull %63) #8
  br label %65

65:                                               ; preds = %64, %61
  %66 = getelementptr inbounds i8, ptr %calloc, i64 16
  %67 = load ptr, ptr %66, align 8
  %.not17.i = icmp eq ptr %67, null
  br i1 %.not17.i, label %69, label %68

68:                                               ; preds = %65
  call void @snd_pcm_sw_params_free(ptr noundef nonnull %67) #8
  br label %69

69:                                               ; preds = %68, %65
  %70 = getelementptr inbounds i8, ptr %calloc, i64 56
  %71 = load ptr, ptr %70, align 8
  %.not18.i = icmp eq ptr %71, null
  br i1 %.not18.i, label %DAUDIO_Close.exit, label %72

72:                                               ; preds = %69
  call void @snd_pcm_status_free(ptr noundef nonnull %71) #8
  br label %DAUDIO_Close.exit

DAUDIO_Close.exit:                                ; preds = %69, %72
  call void @free(ptr noundef nonnull %calloc) #8
  br label %76

73:                                               ; preds = %.critedge63
  %74 = load ptr, ptr %calloc, align 8
  %75 = call i32 @snd_pcm_nonblock(ptr noundef %74, i32 noundef 1) #8
  br label %76

76:                                               ; preds = %DAUDIO_Close.exit, %73, %16, %11
  %.049 = phi ptr [ null, %11 ], [ null, %16 ], [ null, %DAUDIO_Close.exit ], [ %calloc, %73 ]
  ret ptr %.049
}